   0:	00002197          	auipc	x3,0x2
   4:	1cc18193          	addi	x3,x3,460 # 21cc <__global_pointer$>
   8:	00001117          	auipc	x2,0x1
   c:	ff810113          	addi	x2,x2,-8 # 1000 <__stack_top>
  10:	00010433          	add	x8,x2,x0
  14:	1110006f          	jal	x0,924 <main>
  18:	fd010113          	addi	x2,x2,-48
  1c:	02812623          	sw	x8,44(x2)
  20:	03010413          	addi	x8,x2,48
  24:	fca42e23          	sw	x10,-36(x8)
  28:	000347b7          	lui	x15,0x34
  2c:	56078793          	addi	x15,x15,1376 # 34560 <__global_pointer$+0x32394>
  30:	fef42623          	sw	x15,-20(x8)
  34:	fec42783          	lw	x15,-20(x8)
  38:	fdc42703          	lw	x14,-36(x8)
  3c:	00e7a023          	sw	x14,0(x15)
  40:	00000013          	addi	x0,x0,0
  44:	02c12403          	lw	x8,44(x2)
  48:	03010113          	addi	x2,x2,48
  4c:	00008067          	jalr	x0,0(x1)
  50:	fe010113          	addi	x2,x2,-32
  54:	00112e23          	sw	x1,28(x2)
  58:	00812c23          	sw	x8,24(x2)
  5c:	02010413          	addi	x8,x2,32
  60:	fea42623          	sw	x10,-20(x8)
  64:	fec42703          	lw	x14,-20(x8)
  68:	01f00793          	addi	x15,x0,31
  6c:	02e7ca63          	blt	x15,x14,a0 <outbyte+0x50>
  70:	fec42703          	lw	x14,-20(x8)
  74:	00d00793          	addi	x15,x0,13
  78:	02f70463          	beq	x14,x15,a0 <outbyte+0x50>
  7c:	fec42703          	lw	x14,-20(x8)
  80:	00a00793          	addi	x15,x0,10
  84:	00f70e63          	beq	x14,x15,a0 <outbyte+0x50>
  88:	fec42703          	lw	x14,-20(x8)
  8c:	00900793          	addi	x15,x0,9
  90:	00f70863          	beq	x14,x15,a0 <outbyte+0x50>
  94:	fec42703          	lw	x14,-20(x8)
  98:	00800793          	addi	x15,x0,8
  9c:	04f71263          	bne	x14,x15,e0 <outbyte+0x90>
  a0:	fec42703          	lw	x14,-20(x8)
  a4:	00a00793          	addi	x15,x0,10
  a8:	00f71e63          	bne	x14,x15,c4 <outbyte+0x74>
  ac:	000017b7          	lui	x15,0x1
  b0:	9cc7c703          	lbu	x14,-1588(x15) # 9cc <prev.965>
  b4:	00d00793          	addi	x15,x0,13
  b8:	00f70663          	beq	x14,x15,c4 <outbyte+0x74>
  bc:	00d00513          	addi	x10,x0,13
  c0:	f59ff0ef          	jal	x1,18 <_outbyte>
  c4:	fec42503          	lw	x10,-20(x8)
  c8:	f51ff0ef          	jal	x1,18 <_outbyte>
  cc:	fec42783          	lw	x15,-20(x8)
  d0:	0ff7f713          	andi	x14,x15,255
  d4:	000017b7          	lui	x15,0x1
  d8:	9ce78623          	sb	x14,-1588(x15) # 9cc <prev.965>
  dc:	0080006f          	jal	x0,e4 <outbyte+0x94>
  e0:	00000013          	addi	x0,x0,0
  e4:	01c12083          	lw	x1,28(x2)
  e8:	01812403          	lw	x8,24(x2)
  ec:	02010113          	addi	x2,x2,32
  f0:	00008067          	jalr	x0,0(x1)
  f4:	fe010113          	addi	x2,x2,-32
  f8:	00812e23          	sw	x8,28(x2)
  fc:	02010413          	addi	x8,x2,32
 100:	000347b7          	lui	x15,0x34
 104:	56478793          	addi	x15,x15,1380 # 34564 <__global_pointer$+0x32398>
 108:	fef42623          	sw	x15,-20(x8)
 10c:	fec42783          	lw	x15,-20(x8)
 110:	0007a783          	lw	x15,0(x15)
 114:	fef42423          	sw	x15,-24(x8)
 118:	fe842783          	lw	x15,-24(x8)
 11c:	00078513          	addi	x10,x15,0
 120:	01c12403          	lw	x8,28(x2)
 124:	02010113          	addi	x2,x2,32
 128:	00008067          	jalr	x0,0(x1)
 12c:	fe010113          	addi	x2,x2,-32
 130:	00112e23          	sw	x1,28(x2)
 134:	00812c23          	sw	x8,24(x2)
 138:	02010413          	addi	x8,x2,32
 13c:	fea42623          	sw	x10,-20(x8)
 140:	feb42423          	sw	x11,-24(x8)
 144:	fec42783          	lw	x15,-20(x8)
 148:	02078863          	beq	x15,x0,178 <printchar+0x4c>
 14c:	fec42783          	lw	x15,-20(x8)
 150:	0007a783          	lw	x15,0(x15)
 154:	fe842703          	lw	x14,-24(x8)
 158:	0ff77713          	andi	x14,x14,255
 15c:	00e78023          	sb	x14,0(x15)
 160:	fec42783          	lw	x15,-20(x8)
 164:	0007a783          	lw	x15,0(x15)
 168:	00178713          	addi	x14,x15,1
 16c:	fec42783          	lw	x15,-20(x8)
 170:	00e7a023          	sw	x14,0(x15)
 174:	00c0006f          	jal	x0,180 <printchar+0x54>
 178:	fe842503          	lw	x10,-24(x8)
 17c:	ed5ff0ef          	jal	x1,50 <outbyte>
 180:	00000013          	addi	x0,x0,0
 184:	01c12083          	lw	x1,28(x2)
 188:	01812403          	lw	x8,24(x2)
 18c:	02010113          	addi	x2,x2,32
 190:	00008067          	jalr	x0,0(x1)
 194:	fd010113          	addi	x2,x2,-48
 198:	02112623          	sw	x1,44(x2)
 19c:	02812423          	sw	x8,40(x2)
 1a0:	02912223          	sw	x9,36(x2)
 1a4:	03212023          	sw	x18,32(x2)
 1a8:	01312e23          	sw	x19,28(x2)
 1ac:	01412c23          	sw	x20,24(x2)
 1b0:	03010413          	addi	x8,x2,48
 1b4:	fca42e23          	sw	x10,-36(x8)
 1b8:	fcb42c23          	sw	x11,-40(x8)
 1bc:	fcc42a23          	sw	x12,-44(x8)
 1c0:	fcd42823          	sw	x13,-48(x8)
 1c4:	00000493          	addi	x9,x0,0
 1c8:	02000a13          	addi	x20,x0,32
 1cc:	fd442783          	lw	x15,-44(x8)
 1d0:	04f05663          	bge	x0,x15,21c <prints+0x88>
 1d4:	00000913          	addi	x18,x0,0
 1d8:	fd842983          	lw	x19,-40(x8)
 1dc:	00c0006f          	jal	x0,1e8 <prints+0x54>
 1e0:	00190913          	addi	x18,x18,1
 1e4:	00198993          	addi	x19,x19,1
 1e8:	0009c783          	lbu	x15,0(x19)
 1ec:	fe079ae3          	bne	x15,x0,1e0 <prints+0x4c>
 1f0:	fd442783          	lw	x15,-44(x8)
 1f4:	00f94663          	blt	x18,x15,200 <prints+0x6c>
 1f8:	fc042a23          	sw	x0,-44(x8)
 1fc:	0100006f          	jal	x0,20c <prints+0x78>
 200:	fd442783          	lw	x15,-44(x8)
 204:	412787b3          	sub	x15,x15,x18
 208:	fcf42a23          	sw	x15,-44(x8)
 20c:	fd042783          	lw	x15,-48(x8)
 210:	0027f793          	andi	x15,x15,2
 214:	00078463          	beq	x15,x0,21c <prints+0x88>
 218:	03000a13          	addi	x20,x0,48
 21c:	fd042783          	lw	x15,-48(x8)
 220:	0017f793          	andi	x15,x15,1
 224:	04079a63          	bne	x15,x0,278 <prints+0xe4>
 228:	0200006f          	jal	x0,248 <prints+0xb4>
 22c:	000a0593          	addi	x11,x20,0
 230:	fdc42503          	lw	x10,-36(x8)
 234:	ef9ff0ef          	jal	x1,12c <printchar>
 238:	00148493          	addi	x9,x9,1
 23c:	fd442783          	lw	x15,-44(x8)
 240:	fff78793          	addi	x15,x15,-1
 244:	fcf42a23          	sw	x15,-44(x8)
 248:	fd442783          	lw	x15,-44(x8)
 24c:	fef040e3          	blt	x0,x15,22c <prints+0x98>
 250:	0280006f          	jal	x0,278 <prints+0xe4>
 254:	fd842783          	lw	x15,-40(x8)
 258:	0007c783          	lbu	x15,0(x15)
 25c:	00078593          	addi	x11,x15,0
 260:	fdc42503          	lw	x10,-36(x8)
 264:	ec9ff0ef          	jal	x1,12c <printchar>
 268:	00148493          	addi	x9,x9,1
 26c:	fd842783          	lw	x15,-40(x8)
 270:	00178793          	addi	x15,x15,1
 274:	fcf42c23          	sw	x15,-40(x8)
 278:	fd842783          	lw	x15,-40(x8)
 27c:	0007c783          	lbu	x15,0(x15)
 280:	fc079ae3          	bne	x15,x0,254 <prints+0xc0>
 284:	0200006f          	jal	x0,2a4 <prints+0x110>
 288:	000a0593          	addi	x11,x20,0
 28c:	fdc42503          	lw	x10,-36(x8)
 290:	e9dff0ef          	jal	x1,12c <printchar>
 294:	00148493          	addi	x9,x9,1
 298:	fd442783          	lw	x15,-44(x8)
 29c:	fff78793          	addi	x15,x15,-1
 2a0:	fcf42a23          	sw	x15,-44(x8)
 2a4:	fd442783          	lw	x15,-44(x8)
 2a8:	fef040e3          	blt	x0,x15,288 <prints+0xf4>
 2ac:	00048793          	addi	x15,x9,0
 2b0:	00078513          	addi	x10,x15,0
 2b4:	02c12083          	lw	x1,44(x2)
 2b8:	02812403          	lw	x8,40(x2)
 2bc:	02412483          	lw	x9,36(x2)
 2c0:	02012903          	lw	x18,32(x2)
 2c4:	01c12983          	lw	x19,28(x2)
 2c8:	01812a03          	lw	x20,24(x2)
 2cc:	03010113          	addi	x2,x2,48
 2d0:	00008067          	jalr	x0,0(x1)
 2d4:	fe010113          	addi	x2,x2,-32
 2d8:	00812e23          	sw	x8,28(x2)
 2dc:	00912c23          	sw	x9,24(x2)
 2e0:	01212a23          	sw	x18,20(x2)
 2e4:	02010413          	addi	x8,x2,32
 2e8:	fea42623          	sw	x10,-20(x8)
 2ec:	feb42423          	sw	x11,-24(x8)
 2f0:	00000913          	addi	x18,x0,0
 2f4:	fec42483          	lw	x9,-20(x8)
 2f8:	0100006f          	jal	x0,308 <mydiv+0x34>
 2fc:	fe842783          	lw	x15,-24(x8)
 300:	40f484b3          	sub	x9,x9,x15
 304:	00190913          	addi	x18,x18,1
 308:	fe842783          	lw	x15,-24(x8)
 30c:	fef4f8e3          	bgeu	x9,x15,2fc <mydiv+0x28>
 310:	00090793          	addi	x15,x18,0
 314:	00078513          	addi	x10,x15,0
 318:	01c12403          	lw	x8,28(x2)
 31c:	01812483          	lw	x9,24(x2)
 320:	01412903          	lw	x18,20(x2)
 324:	02010113          	addi	x2,x2,32
 328:	00008067          	jalr	x0,0(x1)
 32c:	fe010113          	addi	x2,x2,-32
 330:	00812e23          	sw	x8,28(x2)
 334:	00912c23          	sw	x9,24(x2)
 338:	02010413          	addi	x8,x2,32
 33c:	fea42623          	sw	x10,-20(x8)
 340:	feb42423          	sw	x11,-24(x8)
 344:	fec42483          	lw	x9,-20(x8)
 348:	00c0006f          	jal	x0,354 <mymod+0x28>
 34c:	fe842783          	lw	x15,-24(x8)
 350:	40f484b3          	sub	x9,x9,x15
 354:	fe842783          	lw	x15,-24(x8)
 358:	fef4fae3          	bgeu	x9,x15,34c <mymod+0x20>
 35c:	00048793          	addi	x15,x9,0
 360:	00078513          	addi	x10,x15,0
 364:	01c12403          	lw	x8,28(x2)
 368:	01812483          	lw	x9,24(x2)
 36c:	02010113          	addi	x2,x2,32
 370:	00008067          	jalr	x0,0(x1)
 374:	fb010113          	addi	x2,x2,-80
 378:	04112623          	sw	x1,76(x2)
 37c:	04812423          	sw	x8,72(x2)
 380:	04912223          	sw	x9,68(x2)
 384:	05212023          	sw	x18,64(x2)
 388:	03312e23          	sw	x19,60(x2)
 38c:	03412c23          	sw	x20,56(x2)
 390:	05010413          	addi	x8,x2,80
 394:	fca42623          	sw	x10,-52(x8)
 398:	fcb42423          	sw	x11,-56(x8)
 39c:	fcc42223          	sw	x12,-60(x8)
 3a0:	fcd42023          	sw	x13,-64(x8)
 3a4:	fae42e23          	sw	x14,-68(x8)
 3a8:	faf42c23          	sw	x15,-72(x8)
 3ac:	fb042a23          	sw	x16,-76(x8)
 3b0:	00000a13          	addi	x20,x0,0
 3b4:	00000913          	addi	x18,x0,0
 3b8:	fc842983          	lw	x19,-56(x8)
 3bc:	fc842783          	lw	x15,-56(x8)
 3c0:	02079863          	bne	x15,x0,3f0 <printi+0x7c>
 3c4:	03000793          	addi	x15,x0,48
 3c8:	fcf40a23          	sb	x15,-44(x8)
 3cc:	fc040aa3          	sb	x0,-43(x8)
 3d0:	fd440793          	addi	x15,x8,-44
 3d4:	fb842683          	lw	x13,-72(x8)
 3d8:	fbc42603          	lw	x12,-68(x8)
 3dc:	00078593          	addi	x11,x15,0
 3e0:	fcc42503          	lw	x10,-52(x8)
 3e4:	db1ff0ef          	jal	x1,194 <prints>
 3e8:	00050793          	addi	x15,x10,0
 3ec:	0f80006f          	jal	x0,4e4 <printi+0x170>
 3f0:	fc042783          	lw	x15,-64(x8)
 3f4:	02078463          	beq	x15,x0,41c <printi+0xa8>
 3f8:	fc442703          	lw	x14,-60(x8)
 3fc:	00a00793          	addi	x15,x0,10
 400:	00f71e63          	bne	x14,x15,41c <printi+0xa8>
 404:	fc842783          	lw	x15,-56(x8)
 408:	0007da63          	bge	x15,x0,41c <printi+0xa8>
 40c:	00100a13          	addi	x20,x0,1
 410:	fc842783          	lw	x15,-56(x8)
 414:	40f007b3          	sub	x15,x0,x15
 418:	00078993          	addi	x19,x15,0
 41c:	fd440493          	addi	x9,x8,-44
 420:	00b48493          	addi	x9,x9,11
 424:	00048023          	sb	x0,0(x9)
 428:	0580006f          	jal	x0,480 <printi+0x10c>
 42c:	00098793          	addi	x15,x19,0
 430:	fc442583          	lw	x11,-60(x8)
 434:	00078513          	addi	x10,x15,0
 438:	ef5ff0ef          	jal	x1,32c <mymod>
 43c:	00050093          	addi	x1,x10,0
 440:	00900793          	addi	x15,x0,9
 444:	0017d863          	bge	x15,x1,454 <printi+0xe0>
 448:	fb442783          	lw	x15,-76(x8)
 44c:	fc678793          	addi	x15,x15,-58
 450:	00f080b3          	add	x1,x1,x15
 454:	0ff0f793          	andi	x15,x1,255
 458:	fff48493          	addi	x9,x9,-1
 45c:	03078793          	addi	x15,x15,48
 460:	0ff7f793          	andi	x15,x15,255
 464:	00f48023          	sb	x15,0(x9)
 468:	00098793          	addi	x15,x19,0
 46c:	fc442583          	lw	x11,-60(x8)
 470:	00078513          	addi	x10,x15,0
 474:	e61ff0ef          	jal	x1,2d4 <mydiv>
 478:	00050793          	addi	x15,x10,0
 47c:	00078993          	addi	x19,x15,0
 480:	fa0996e3          	bne	x19,x0,42c <printi+0xb8>
 484:	040a0263          	beq	x20,x0,4c8 <printi+0x154>
 488:	fbc42783          	lw	x15,-68(x8)
 48c:	02078863          	beq	x15,x0,4bc <printi+0x148>
 490:	fb842783          	lw	x15,-72(x8)
 494:	0027f793          	andi	x15,x15,2
 498:	02078263          	beq	x15,x0,4bc <printi+0x148>
 49c:	02d00593          	addi	x11,x0,45
 4a0:	fcc42503          	lw	x10,-52(x8)
 4a4:	c89ff0ef          	jal	x1,12c <printchar>
 4a8:	00190913          	addi	x18,x18,1
 4ac:	fbc42783          	lw	x15,-68(x8)
 4b0:	fff78793          	addi	x15,x15,-1
 4b4:	faf42e23          	sw	x15,-68(x8)
 4b8:	0100006f          	jal	x0,4c8 <printi+0x154>
 4bc:	fff48493          	addi	x9,x9,-1
 4c0:	02d00793          	addi	x15,x0,45
 4c4:	00f48023          	sb	x15,0(x9)
 4c8:	fb842683          	lw	x13,-72(x8)
 4cc:	fbc42603          	lw	x12,-68(x8)
 4d0:	00048593          	addi	x11,x9,0
 4d4:	fcc42503          	lw	x10,-52(x8)
 4d8:	cbdff0ef          	jal	x1,194 <prints>
 4dc:	00050793          	addi	x15,x10,0
 4e0:	00f907b3          	add	x15,x18,x15
 4e4:	00078513          	addi	x10,x15,0
 4e8:	04c12083          	lw	x1,76(x2)
 4ec:	04812403          	lw	x8,72(x2)
 4f0:	04412483          	lw	x9,68(x2)
 4f4:	04012903          	lw	x18,64(x2)
 4f8:	03c12983          	lw	x19,60(x2)
 4fc:	03812a03          	lw	x20,56(x2)
 500:	05010113          	addi	x2,x2,80
 504:	00008067          	jalr	x0,0(x1)
 508:	fc010113          	addi	x2,x2,-64
 50c:	02112e23          	sw	x1,60(x2)
 510:	02812c23          	sw	x8,56(x2)
 514:	02912a23          	sw	x9,52(x2)
 518:	03212823          	sw	x18,48(x2)
 51c:	03312623          	sw	x19,44(x2)
 520:	03412423          	sw	x20,40(x2)
 524:	04010413          	addi	x8,x2,64
 528:	fca42623          	sw	x10,-52(x8)
 52c:	fcb42423          	sw	x11,-56(x8)
 530:	00000913          	addi	x18,x0,0
 534:	fc842783          	lw	x15,-56(x8)
 538:	00478713          	addi	x14,x15,4
 53c:	fce42423          	sw	x14,-56(x8)
 540:	0007a783          	lw	x15,0(x15)
 544:	00078493          	addi	x9,x15,0
 548:	26c0006f          	jal	x0,7b4 <print+0x2ac>
 54c:	0004c703          	lbu	x14,0(x9)
 550:	02500793          	addi	x15,x0,37
 554:	22f71e63          	bne	x14,x15,790 <print+0x288>
 558:	00148493          	addi	x9,x9,1
 55c:	00000a13          	addi	x20,x0,0
 560:	000a0993          	addi	x19,x20,0
 564:	0004c783          	lbu	x15,0(x9)
 568:	24078c63          	beq	x15,x0,7c0 <print+0x2b8>
 56c:	0004c703          	lbu	x14,0(x9)
 570:	02500793          	addi	x15,x0,37
 574:	22f70263          	beq	x14,x15,798 <print+0x290>
 578:	0004c703          	lbu	x14,0(x9)
 57c:	02d00793          	addi	x15,x0,45
 580:	00f71c63          	bne	x14,x15,598 <print+0x90>
 584:	00148493          	addi	x9,x9,1
 588:	00100a13          	addi	x20,x0,1
 58c:	00c0006f          	jal	x0,598 <print+0x90>
 590:	00148493          	addi	x9,x9,1
 594:	002a6a13          	ori	x20,x20,2
 598:	0004c703          	lbu	x14,0(x9)
 59c:	03000793          	addi	x15,x0,48
 5a0:	fef708e3          	beq	x14,x15,590 <print+0x88>
 5a4:	0280006f          	jal	x0,5cc <print+0xc4>
 5a8:	00098793          	addi	x15,x19,0
 5ac:	00279793          	slli	x15,x15,0x2
 5b0:	013787b3          	add	x15,x15,x19
 5b4:	00179793          	slli	x15,x15,0x1
 5b8:	00078993          	addi	x19,x15,0
 5bc:	0004c783          	lbu	x15,0(x9)
 5c0:	fd078793          	addi	x15,x15,-48
 5c4:	00f989b3          	add	x19,x19,x15
 5c8:	00148493          	addi	x9,x9,1
 5cc:	0004c703          	lbu	x14,0(x9)
 5d0:	02f00793          	addi	x15,x0,47
 5d4:	00e7f863          	bgeu	x15,x14,5e4 <print+0xdc>
 5d8:	0004c703          	lbu	x14,0(x9)
 5dc:	03900793          	addi	x15,x0,57
 5e0:	fce7f4e3          	bgeu	x15,x14,5a8 <print+0xa0>
 5e4:	0004c703          	lbu	x14,0(x9)
 5e8:	07300793          	addi	x15,x0,115
 5ec:	04f71463          	bne	x14,x15,634 <print+0x12c>
 5f0:	fc842783          	lw	x15,-56(x8)
 5f4:	00478713          	addi	x14,x15,4
 5f8:	fce42423          	sw	x14,-56(x8)
 5fc:	0007a083          	lw	x1,0(x15)
 600:	00008663          	beq	x1,x0,60c <print+0x104>
 604:	00008793          	addi	x15,x1,0
 608:	00c0006f          	jal	x0,614 <print+0x10c>
 60c:	000017b7          	lui	x15,0x1
 610:	97c78793          	addi	x15,x15,-1668 # 97c <main+0x58>
 614:	000a0693          	addi	x13,x20,0
 618:	00098613          	addi	x12,x19,0
 61c:	00078593          	addi	x11,x15,0
 620:	fcc42503          	lw	x10,-52(x8)
 624:	b71ff0ef          	jal	x1,194 <prints>
 628:	00050793          	addi	x15,x10,0
 62c:	00f90933          	add	x18,x18,x15
 630:	1800006f          	jal	x0,7b0 <print+0x2a8>
 634:	0004c703          	lbu	x14,0(x9)
 638:	06400793          	addi	x15,x0,100
 63c:	02f71e63          	bne	x14,x15,678 <print+0x170>
 640:	fc842783          	lw	x15,-56(x8)
 644:	00478713          	addi	x14,x15,4
 648:	fce42423          	sw	x14,-56(x8)
 64c:	0007a583          	lw	x11,0(x15)
 650:	06100813          	addi	x16,x0,97
 654:	000a0793          	addi	x15,x20,0
 658:	00098713          	addi	x14,x19,0
 65c:	00100693          	addi	x13,x0,1
 660:	00a00613          	addi	x12,x0,10
 664:	fcc42503          	lw	x10,-52(x8)
 668:	d0dff0ef          	jal	x1,374 <printi>
 66c:	00050793          	addi	x15,x10,0
 670:	00f90933          	add	x18,x18,x15
 674:	13c0006f          	jal	x0,7b0 <print+0x2a8>
 678:	0004c703          	lbu	x14,0(x9)
 67c:	07800793          	addi	x15,x0,120
 680:	02f71e63          	bne	x14,x15,6bc <print+0x1b4>
 684:	fc842783          	lw	x15,-56(x8)
 688:	00478713          	addi	x14,x15,4
 68c:	fce42423          	sw	x14,-56(x8)
 690:	0007a583          	lw	x11,0(x15)
 694:	06100813          	addi	x16,x0,97
 698:	000a0793          	addi	x15,x20,0
 69c:	00098713          	addi	x14,x19,0
 6a0:	00000693          	addi	x13,x0,0
 6a4:	01000613          	addi	x12,x0,16
 6a8:	fcc42503          	lw	x10,-52(x8)
 6ac:	cc9ff0ef          	jal	x1,374 <printi>
 6b0:	00050793          	addi	x15,x10,0
 6b4:	00f90933          	add	x18,x18,x15
 6b8:	0f80006f          	jal	x0,7b0 <print+0x2a8>
 6bc:	0004c703          	lbu	x14,0(x9)
 6c0:	05800793          	addi	x15,x0,88
 6c4:	02f71e63          	bne	x14,x15,700 <print+0x1f8>
 6c8:	fc842783          	lw	x15,-56(x8)
 6cc:	00478713          	addi	x14,x15,4
 6d0:	fce42423          	sw	x14,-56(x8)
 6d4:	0007a583          	lw	x11,0(x15)
 6d8:	04100813          	addi	x16,x0,65
 6dc:	000a0793          	addi	x15,x20,0
 6e0:	00098713          	addi	x14,x19,0
 6e4:	00000693          	addi	x13,x0,0
 6e8:	01000613          	addi	x12,x0,16
 6ec:	fcc42503          	lw	x10,-52(x8)
 6f0:	c85ff0ef          	jal	x1,374 <printi>
 6f4:	00050793          	addi	x15,x10,0
 6f8:	00f90933          	add	x18,x18,x15
 6fc:	0b40006f          	jal	x0,7b0 <print+0x2a8>
 700:	0004c703          	lbu	x14,0(x9)
 704:	07500793          	addi	x15,x0,117
 708:	02f71e63          	bne	x14,x15,744 <print+0x23c>
 70c:	fc842783          	lw	x15,-56(x8)
 710:	00478713          	addi	x14,x15,4
 714:	fce42423          	sw	x14,-56(x8)
 718:	0007a583          	lw	x11,0(x15)
 71c:	06100813          	addi	x16,x0,97
 720:	000a0793          	addi	x15,x20,0
 724:	00098713          	addi	x14,x19,0
 728:	00000693          	addi	x13,x0,0
 72c:	00a00613          	addi	x12,x0,10
 730:	fcc42503          	lw	x10,-52(x8)
 734:	c41ff0ef          	jal	x1,374 <printi>
 738:	00050793          	addi	x15,x10,0
 73c:	00f90933          	add	x18,x18,x15
 740:	0700006f          	jal	x0,7b0 <print+0x2a8>
 744:	0004c703          	lbu	x14,0(x9)
 748:	06300793          	addi	x15,x0,99
 74c:	06f71263          	bne	x14,x15,7b0 <print+0x2a8>
 750:	fc842783          	lw	x15,-56(x8)
 754:	00478713          	addi	x14,x15,4
 758:	fce42423          	sw	x14,-56(x8)
 75c:	0007a783          	lw	x15,0(x15)
 760:	0ff7f793          	andi	x15,x15,255
 764:	fcf40e23          	sb	x15,-36(x8)
 768:	fc040ea3          	sb	x0,-35(x8)
 76c:	fdc40793          	addi	x15,x8,-36
 770:	000a0693          	addi	x13,x20,0
 774:	00098613          	addi	x12,x19,0
 778:	00078593          	addi	x11,x15,0
 77c:	fcc42503          	lw	x10,-52(x8)
 780:	a15ff0ef          	jal	x1,194 <prints>
 784:	00050793          	addi	x15,x10,0
 788:	00f90933          	add	x18,x18,x15
 78c:	0240006f          	jal	x0,7b0 <print+0x2a8>
 790:	00000013          	addi	x0,x0,0
 794:	0080006f          	jal	x0,79c <print+0x294>
 798:	00000013          	addi	x0,x0,0
 79c:	0004c783          	lbu	x15,0(x9)
 7a0:	00078593          	addi	x11,x15,0
 7a4:	fcc42503          	lw	x10,-52(x8)
 7a8:	985ff0ef          	jal	x1,12c <printchar>
 7ac:	00190913          	addi	x18,x18,1
 7b0:	00148493          	addi	x9,x9,1
 7b4:	0004c783          	lbu	x15,0(x9)
 7b8:	d8079ae3          	bne	x15,x0,54c <print+0x44>
 7bc:	0080006f          	jal	x0,7c4 <print+0x2bc>
 7c0:	00000013          	addi	x0,x0,0
 7c4:	fcc42783          	lw	x15,-52(x8)
 7c8:	00078863          	beq	x15,x0,7d8 <print+0x2d0>
 7cc:	fcc42783          	lw	x15,-52(x8)
 7d0:	0007a783          	lw	x15,0(x15)
 7d4:	00078023          	sb	x0,0(x15)
 7d8:	00090793          	addi	x15,x18,0
 7dc:	00078513          	addi	x10,x15,0
 7e0:	03c12083          	lw	x1,60(x2)
 7e4:	03812403          	lw	x8,56(x2)
 7e8:	03412483          	lw	x9,52(x2)
 7ec:	03012903          	lw	x18,48(x2)
 7f0:	02c12983          	lw	x19,44(x2)
 7f4:	02812a03          	lw	x20,40(x2)
 7f8:	04010113          	addi	x2,x2,64
 7fc:	00008067          	jalr	x0,0(x1)
 800:	fc010113          	addi	x2,x2,-64
 804:	00112e23          	sw	x1,28(x2)
 808:	00812c23          	sw	x8,24(x2)
 80c:	02010413          	addi	x8,x2,32
 810:	fea42623          	sw	x10,-20(x8)
 814:	00b42223          	sw	x11,4(x8)
 818:	00c42423          	sw	x12,8(x8)
 81c:	00d42623          	sw	x13,12(x8)
 820:	00e42823          	sw	x14,16(x8)
 824:	00f42a23          	sw	x15,20(x8)
 828:	01042c23          	sw	x16,24(x8)
 82c:	01142e23          	sw	x17,28(x8)
 830:	fec40093          	addi	x1,x8,-20
 834:	00008593          	addi	x11,x1,0
 838:	00000513          	addi	x10,x0,0
 83c:	ccdff0ef          	jal	x1,508 <print>
 840:	00050793          	addi	x15,x10,0
 844:	00078513          	addi	x10,x15,0
 848:	01c12083          	lw	x1,28(x2)
 84c:	01812403          	lw	x8,24(x2)
 850:	04010113          	addi	x2,x2,64
 854:	00008067          	jalr	x0,0(x1)
 858:	fc010113          	addi	x2,x2,-64
 85c:	00112e23          	sw	x1,28(x2)
 860:	00812c23          	sw	x8,24(x2)
 864:	02010413          	addi	x8,x2,32
 868:	fea42623          	sw	x10,-20(x8)
 86c:	feb42423          	sw	x11,-24(x8)
 870:	00c42423          	sw	x12,8(x8)
 874:	00d42623          	sw	x13,12(x8)
 878:	00e42823          	sw	x14,16(x8)
 87c:	00f42a23          	sw	x15,20(x8)
 880:	01042c23          	sw	x16,24(x8)
 884:	01142e23          	sw	x17,28(x8)
 888:	fe840093          	addi	x1,x8,-24
 88c:	fec40793          	addi	x15,x8,-20
 890:	00008593          	addi	x11,x1,0
 894:	00078513          	addi	x10,x15,0
 898:	c71ff0ef          	jal	x1,508 <print>
 89c:	00050793          	addi	x15,x10,0
 8a0:	00078513          	addi	x10,x15,0
 8a4:	01c12083          	lw	x1,28(x2)
 8a8:	01812403          	lw	x8,24(x2)
 8ac:	04010113          	addi	x2,x2,64
 8b0:	00008067          	jalr	x0,0(x1)
 8b4:	fe010113          	addi	x2,x2,-32
 8b8:	00112e23          	sw	x1,28(x2)
 8bc:	00812c23          	sw	x8,24(x2)
 8c0:	00912a23          	sw	x9,20(x2)
 8c4:	02010413          	addi	x8,x2,32
 8c8:	fea42623          	sw	x10,-20(x8)
 8cc:	fec42703          	lw	x14,-20(x8)
 8d0:	00200793          	addi	x15,x0,2
 8d4:	00e7c663          	blt	x15,x14,8e0 <fib+0x2c>
 8d8:	00100793          	addi	x15,x0,1
 8dc:	0300006f          	jal	x0,90c <fib+0x58>
 8e0:	fec42783          	lw	x15,-20(x8)
 8e4:	fff78793          	addi	x15,x15,-1
 8e8:	00078513          	addi	x10,x15,0
 8ec:	fc9ff0ef          	jal	x1,8b4 <fib>
 8f0:	00050493          	addi	x9,x10,0
 8f4:	fec42783          	lw	x15,-20(x8)
 8f8:	ffe78793          	addi	x15,x15,-2
 8fc:	00078513          	addi	x10,x15,0
 900:	fb5ff0ef          	jal	x1,8b4 <fib>
 904:	00050793          	addi	x15,x10,0
 908:	00f487b3          	add	x15,x9,x15
 90c:	00078513          	addi	x10,x15,0
 910:	01c12083          	lw	x1,28(x2)
 914:	01812403          	lw	x8,24(x2)
 918:	01412483          	lw	x9,20(x2)
 91c:	02010113          	addi	x2,x2,32
 920:	00008067          	jalr	x0,0(x1)
 924:	ff010113          	addi	x2,x2,-16
 928:	00112623          	sw	x1,12(x2)
 92c:	00812423          	sw	x8,8(x2)
 930:	01010413          	addi	x8,x2,16
 934:	00600513          	addi	x10,x0,6
 938:	f7dff0ef          	jal	x1,8b4 <fib>
 93c:	00050713          	addi	x14,x10,0
 940:	00800793          	addi	x15,x0,8
 944:	00f71a63          	bne	x14,x15,958 <main+0x34>
 948:	000017b7          	lui	x15,0x1
 94c:	98478513          	addi	x10,x15,-1660 # 984 <main+0x60>
 950:	eb1ff0ef          	jal	x1,800 <printf>
 954:	0100006f          	jal	x0,964 <main+0x40>
 958:	000017b7          	lui	x15,0x1
 95c:	99078513          	addi	x10,x15,-1648 # 990 <main+0x6c>
 960:	ea1ff0ef          	jal	x1,800 <printf>
 964:	02a00793          	addi	x15,x0,42
 968:	00078513          	addi	x10,x15,0
 96c:	00c12083          	lw	x1,12(x2)
 970:	00812403          	lw	x8,8(x2)
 974:	01010113          	addi	x2,x2,16
 978:	00008067          	jalr	x0,0(x1)
